target datalayout = "e-m:e-p270:32:32-p271:32:32-p272:64:64-i64:64-i128:128-f80:128-n8:16:32:64-S128"
target triple = "x86_64-pc-linux-gnu"

%struct.ParallelVacuumState = type { ptr, ptr, ptr, i32, ptr, ptr, ptr, ptr, ptr, ptr, i32, i32, i32, ptr, ptr, ptr, ptr, i32 }
%struct.PVShared = type { i32, i32, i64, double, i8, i32, i32, %struct.pg_atomic_uint32, %struct.pg_atomic_uint32, %struct.pg_atomic_uint32, i32, i64, %struct.VacDeadItemsInfo }
%struct.pg_atomic_uint32 = type { i32 }
%struct.VacDeadItemsInfo = type { i64, i64 }

; Function Attrs: nounwind uwtable
define dso_local void @parallel_vacuum_reset_dead_items(ptr noundef %0) #0 {
  %2 = alloca ptr, align 8
  %3 = alloca ptr, align 8
  store ptr %0, ptr %2, align 8
  call void @llvm.lifetime.start.p0(i64 8, ptr %3) #9
  %4 = load ptr, ptr %2, align 8
  %5 = getelementptr inbounds nuw %struct.ParallelVacuumState, ptr %4, i32 0, i32 4
  %6 = load ptr, ptr %5, align 8
  %7 = getelementptr inbounds nuw %struct.PVShared, ptr %6, i32 0, i32 12
  store ptr %7, ptr %3, align 8
  %8 = load ptr, ptr %2, align 8
  %9 = getelementptr inbounds nuw %struct.ParallelVacuumState, ptr %8, i32 0, i32 6
  %10 = load ptr, ptr %9, align 8
  call void @TidStoreDestroy(ptr noundef %10)
  %11 = load ptr, ptr %3, align 8
  %12 = getelementptr inbounds nuw %struct.VacDeadItemsInfo, ptr %11, i32 0, i32 0
  %13 = load i64, ptr %12, align 8
  %14 = call ptr @TidStoreCreateShared(i64 noundef %13, i32 noundef 91)
  %15 = load ptr, ptr %2, align 8
  %16 = getelementptr inbounds nuw %struct.ParallelVacuumState, ptr %15, i32 0, i32 6
  store ptr %14, ptr %16, align 8
  %17 = load ptr, ptr %2, align 8
  %18 = getelementptr inbounds nuw %struct.ParallelVacuumState, ptr %17, i32 0, i32 6
  %19 = load ptr, ptr %18, align 8
  %20 = call ptr @TidStoreGetDSA(ptr noundef %19)
  %21 = call i32 @dsa_get_handle(ptr noundef %20)
  %22 = load ptr, ptr %2, align 8
  %23 = getelementptr inbounds nuw %struct.ParallelVacuumState, ptr %22, i32 0, i32 4
  %24 = load ptr, ptr %23, align 8
  %25 = getelementptr inbounds nuw %struct.PVShared, ptr %24, i32 0, i32 10
  store i32 %21, ptr %25, align 8
  %26 = load ptr, ptr %2, align 8
  %27 = getelementptr inbounds nuw %struct.ParallelVacuumState, ptr %26, i32 0, i32 6
  %28 = load ptr, ptr %27, align 8
  %29 = call i64 @TidStoreGetHandle(ptr noundef %28)
  %30 = load ptr, ptr %2, align 8
  %31 = getelementptr inbounds nuw %struct.ParallelVacuumState, ptr %30, i32 0, i32 4
  %32 = load ptr, ptr %31, align 8
  %33 = getelementptr inbounds nuw %struct.PVShared, ptr %32, i32 0, i32 11
  store i64 %29, ptr %33, align 8
  %34 = load ptr, ptr %3, align 8
  %35 = getelementptr inbounds nuw %struct.VacDeadItemsInfo, ptr %34, i32 0, i32 1
  store i64 0, ptr %35, align 8
  call void @llvm.lifetime.end.p0(i64 8, ptr %3) #9
  ret void
}