; Function Attrs: nounwind uwtable
define dso_local void @parallel_vacuum_reset_dead_items(ptr noundef captures(none) %0) local_unnamed_addr #0 {
  %2 = getelementptr inbounds nuw i8, ptr %0, i64 32
  %3 = load ptr, ptr %2, align 8
  %4 = getelementptr inbounds nuw i8, ptr %3, i64 64
  %5 = getelementptr inbounds nuw i8, ptr %0, i64 48
  %6 = load ptr, ptr %5, align 8
  tail call void @TidStoreDestroy(ptr noundef %6) #10
  %7 = load i64, ptr %4, align 8
  %8 = tail call ptr @TidStoreCreateShared(i64 noundef %7, i32 noundef 91) #10
  store ptr %8, ptr %5, align 8
  %9 = tail call ptr @TidStoreGetDSA(ptr noundef %8) #10
  %10 = tail call i32 @dsa_get_handle(ptr noundef %9) #10
  %11 = load ptr, ptr %2, align 8
  %12 = getelementptr inbounds nuw i8, ptr %11, i64 48
  store i32 %10, ptr %12, align 8
  %13 = load ptr, ptr %5, align 8
  %14 = tail call i64 @TidStoreGetHandle(ptr noundef %13) #10
  %15 = load ptr, ptr %2, align 8
  %16 = getelementptr inbounds nuw i8, ptr %15, i64 56
  store i64 %14, ptr %16, align 8
  %17 = getelementptr inbounds nuw i8, ptr %3, i64 72
  store i64 0, ptr %17, align 8
  ret void
}